; Function Attrs: mustprogress uwtable
define hidden noundef zeroext i1 @_ZN10check_predclEP4expr(ptr noundef nonnull align 8 dereferenceable(137) %this, ptr noundef %e) local_unnamed_addr #3 align 2 {
entry:
  %m_visited = getelementptr inbounds i8, ptr %this, i64 64
  %call = tail call noundef zeroext i1 @_ZNK8ast_mark9is_markedEP3ast(ptr noundef nonnull align 8 dereferenceable(56) %m_visited, ptr noundef %e)
  br i1 %call, label %if.end, label %if.then

if.then:                                          ; preds = %entry
  %tobool.not.i.i.i.i = icmp eq ptr %e, null
  br i1 %tobool.not.i.i.i.i, label %_ZN15ref_vector_coreI4expr19ref_manager_wrapperIS0_11ast_managerEE7inc_refEPS0_.exit.i, label %if.then.i.i.i.i

if.then.i.i.i.i:                                  ; preds = %if.then
  %m_ref_count.i.i.i.i.i = getelementptr inbounds i8, ptr %e, i64 8
  %0 = load i32, ptr %m_ref_count.i.i.i.i.i, align 4
  %inc.i.i.i.i.i = add i32 %0, 1
  store i32 %inc.i.i.i.i.i, ptr %m_ref_count.i.i.i.i.i, align 4
  br label %_ZN15ref_vector_coreI4expr19ref_manager_wrapperIS0_11ast_managerEE7inc_refEPS0_.exit.i

_ZN15ref_vector_coreI4expr19ref_manager_wrapperIS0_11ast_managerEE7inc_refEPS0_.exit.i: ; preds = %if.then.i.i.i.i, %if.then
  %m_nodes.i = getelementptr inbounds i8, ptr %this, i64 128
  %1 = load ptr, ptr %m_nodes.i, align 8
  %cmp.i.i = icmp eq ptr %1, null
  br i1 %cmp.i.i, label %if.then.i.i, label %lor.lhs.false.i.i

lor.lhs.false.i.i:                                ; preds = %_ZN15ref_vector_coreI4expr19ref_manager_wrapperIS0_11ast_managerEE7inc_refEPS0_.exit.i
  %arrayidx.i.i = getelementptr inbounds i8, ptr %1, i64 -4
  %2 = load i32, ptr %arrayidx.i.i, align 4
  %arrayidx4.i.i = getelementptr inbounds i8, ptr %1, i64 -8
  %3 = load i32, ptr %arrayidx4.i.i, align 4
  %cmp5.i.i = icmp eq i32 %2, %3
  br i1 %cmp5.i.i, label %if.then.i.i, label %_ZN15ref_vector_coreI4expr19ref_manager_wrapperIS0_11ast_managerEE9push_backEPS0_.exit

if.then.i.i:                                      ; preds = %lor.lhs.false.i.i, %_ZN15ref_vector_coreI4expr19ref_manager_wrapperIS0_11ast_managerEE7inc_refEPS0_.exit.i
  tail call void @_ZN6vectorIP4exprLb0EjE13expand_vectorEv(ptr noundef nonnull align 8 dereferenceable(8) %m_nodes.i)
  %.pre.i.i = load ptr, ptr %m_nodes.i, align 8
  %arrayidx8.phi.trans.insert.i.i = getelementptr inbounds i8, ptr %.pre.i.i, i64 -4
  %.pre1.i.i = load i32, ptr %arrayidx8.phi.trans.insert.i.i, align 4
  br label %_ZN15ref_vector_coreI4expr19ref_manager_wrapperIS0_11ast_managerEE9push_backEPS0_.exit

_ZN15ref_vector_coreI4expr19ref_manager_wrapperIS0_11ast_managerEE9push_backEPS0_.exit: ; preds = %lor.lhs.false.i.i, %if.then.i.i
  %4 = phi i32 [ %.pre1.i.i, %if.then.i.i ], [ %2, %lor.lhs.false.i.i ]
  %5 = phi ptr [ %.pre.i.i, %if.then.i.i ], [ %1, %lor.lhs.false.i.i ]
  %idx.ext.i.i = zext i32 %4 to i64
  %add.ptr.i.i = getelementptr inbounds ptr, ptr %5, i64 %idx.ext.i.i
  store ptr %e, ptr %add.ptr.i.i, align 8
  %6 = load ptr, ptr %m_nodes.i, align 8
  %arrayidx10.i.i = getelementptr inbounds i8, ptr %6, i64 -4
  %7 = load i32, ptr %arrayidx10.i.i, align 4
  %inc.i.i = add i32 %7, 1
  store i32 %inc.i.i, ptr %arrayidx10.i.i, align 4
  tail call void @_ZN10check_pred5visitEP4expr(ptr noundef nonnull align 8 dereferenceable(137) %this, ptr noundef %e)
  br label %if.end

if.end:                                           ; preds = %_ZN15ref_vector_coreI4expr19ref_manager_wrapperIS0_11ast_managerEE9push_backEPS0_.exit, %entry
  %m_pred_holds = getelementptr inbounds i8, ptr %this, i64 8
  %call3 = tail call noundef zeroext i1 @_ZNK8ast_mark9is_markedEP3ast(ptr noundef nonnull align 8 dereferenceable(56) %m_pred_holds, ptr noundef %e)
  ret i1 %call3
}